target datalayout = "e-m:e-p270:32:32-p271:32:32-p272:64:64-i64:64-i128:128-f80:128-n8:16:32:64-S128"
target triple = "x86_64-pc-linux-gnu"

%"class.std::__shared_count" = type { ptr }
%struct.__va_list_tag = type { i32, i32, ptr, ptr }
%"class.std::__shared_ptr.59" = type { ptr, %"class.std::__shared_count" }

; Function Attrs: mustprogress uwtable
define internal void @_ZN7rocksdbL4LogvENS_12InfoLogLevelEPNS_6LoggerEPKcP13__va_list_tag(i8 noundef zeroext %0, ptr noundef %1, ptr noundef %2, ptr noundef %3) #5 {
  %5 = alloca i8, align 1
  %6 = alloca ptr, align 8
  %7 = alloca ptr, align 8
  %8 = alloca ptr, align 8
  store i8 %0, ptr %5, align 1, !tbaa !191
  store ptr %1, ptr %6, align 8, !tbaa !182
  store ptr %2, ptr %7, align 8, !tbaa !31
  store ptr %3, ptr %8, align 8, !tbaa !189
  %9 = load ptr, ptr %6, align 8, !tbaa !182
  %10 = icmp ne ptr %9, null
  br i1 %10, label %11, label %41

11:                                               ; preds = %4
  %12 = load ptr, ptr %6, align 8, !tbaa !182
  %13 = load ptr, ptr %12, align 8, !tbaa !52
  %14 = getelementptr inbounds ptr, ptr %13, i64 8
  %15 = load ptr, ptr %14, align 8
  %16 = call noundef zeroext i8 %15(ptr noundef nonnull align 8 dereferenceable(10) %12)
  %17 = zext i8 %16 to i32
  %18 = load i8, ptr %5, align 1, !tbaa !191
  %19 = zext i8 %18 to i32
  %20 = icmp sle i32 %17, %19
  br i1 %20, label %21, label %41

21:                                               ; preds = %11
  %22 = load i8, ptr %5, align 1, !tbaa !191
  %23 = zext i8 %22 to i32
  %24 = icmp eq i32 %23, 5
  br i1 %24, label %25, label %32

25:                                               ; preds = %21
  %26 = load ptr, ptr %6, align 8, !tbaa !182
  %27 = load ptr, ptr %7, align 8, !tbaa !31
  %28 = load ptr, ptr %8, align 8, !tbaa !189
  %29 = load ptr, ptr %26, align 8, !tbaa !52
  %30 = getelementptr inbounds ptr, ptr %29, i64 3
  %31 = load ptr, ptr %30, align 8
  call void %31(ptr noundef nonnull align 8 dereferenceable(10) %26, ptr noundef %27, ptr noundef %28)
  br label %40

32:                                               ; preds = %21
  %33 = load ptr, ptr %6, align 8, !tbaa !182
  %34 = load i8, ptr %5, align 1, !tbaa !191
  %35 = load ptr, ptr %7, align 8, !tbaa !31
  %36 = load ptr, ptr %8, align 8, !tbaa !189
  %37 = load ptr, ptr %33, align 8, !tbaa !52
  %38 = getelementptr inbounds ptr, ptr %37, i64 5
  %39 = load ptr, ptr %38, align 8
  call void %39(ptr noundef nonnull align 8 dereferenceable(10) %33, i8 noundef zeroext %34, ptr noundef %35, ptr noundef %36)
  br label %40

40:                                               ; preds = %32, %25
  br label %41

41:                                               ; preds = %40, %11, %4
  ret void
}

; Function Attrs: mustprogress nounwind uwtable
define linkonce_odr noundef ptr @_ZNKSt12__shared_ptrIN7rocksdb6LoggerELN9__gnu_cxx12_Lock_policyE2EE3getEv(ptr noundef nonnull align 8 dereferenceable(16) %0) #3 comdat align 2 {
  %2 = alloca ptr, align 8
  store ptr %0, ptr %2, align 8, !tbaa !193
  %3 = load ptr, ptr %2, align 8
  %4 = getelementptr inbounds nuw %"class.std::__shared_ptr.59", ptr %3, i32 0, i32 0
  %5 = load ptr, ptr %4, align 8, !tbaa !195
  ret ptr %5
}

; Function Attrs: mustprogress uwtable
define void @_ZN7rocksdb3LogENS_12InfoLogLevelERKSt10shared_ptrINS_6LoggerEEPKcz(i8 noundef zeroext %0, ptr noundef nonnull align 8 dereferenceable(16) %1, ptr noundef %2, ...) #5 {
  %4 = alloca i8, align 1
  %5 = alloca ptr, align 8
  %6 = alloca ptr, align 8
  %7 = alloca [1 x %struct.__va_list_tag], align 16
  store i8 %0, ptr %4, align 1, !tbaa !191
  store ptr %1, ptr %5, align 8, !tbaa !91
  store ptr %2, ptr %6, align 8, !tbaa !31
  call void @llvm.lifetime.start.p0(i64 24, ptr %7) #4
  %8 = getelementptr inbounds [1 x %struct.__va_list_tag], ptr %7, i64 0, i64 0
  call void @llvm.va_start.p0(ptr %8)
  %9 = load i8, ptr %4, align 1, !tbaa !191
  %10 = load ptr, ptr %5, align 8, !tbaa !91
  %11 = call noundef ptr @_ZNKSt12__shared_ptrIN7rocksdb6LoggerELN9__gnu_cxx12_Lock_policyE2EE3getEv(ptr noundef nonnull align 8 dereferenceable(16) %10) #4
  %12 = load ptr, ptr %6, align 8, !tbaa !31
  %13 = getelementptr inbounds [1 x %struct.__va_list_tag], ptr %7, i64 0, i64 0
  call void @_ZN7rocksdbL4LogvENS_12InfoLogLevelEPNS_6LoggerEPKcP13__va_list_tag(i8 noundef zeroext %9, ptr noundef %11, ptr noundef %12, ptr noundef %13)
  %14 = getelementptr inbounds [1 x %struct.__va_list_tag], ptr %7, i64 0, i64 0
  call void @llvm.va_end.p0(ptr %14)
  call void @llvm.lifetime.end.p0(i64 24, ptr %7) #4
  ret void
}