; Function Attrs: mustprogress uwtable
define void @_ZN7rocksdb3LogENS_12InfoLogLevelERKSt10shared_ptrINS_6LoggerEEPKcz(i8 noundef zeroext %0, ptr noundef nonnull readonly align 8 captures(none) dereferenceable(16) %1, ptr noundef %2, ...) local_unnamed_addr #4 {
  %4 = alloca [1 x %struct.__va_list_tag], align 16
  call void @llvm.lifetime.start.p0(i64 24, ptr nonnull %4) #37
  call void @llvm.va_start.p0(ptr nonnull %4)
  %5 = load ptr, ptr %1, align 8, !tbaa !229
  %.not.i = icmp eq ptr %5, null
  br i1 %.not.i, label %_ZN7rocksdbL4LogvENS_12InfoLogLevelEPNS_6LoggerEPKcP13__va_list_tag.exit, label %6

6:                                                ; preds = %3
  %7 = load ptr, ptr %5, align 8, !tbaa !18
  %8 = getelementptr inbounds nuw i8, ptr %7, i64 64
  %9 = load ptr, ptr %8, align 8
  %10 = call noundef zeroext i8 %9(ptr noundef nonnull align 8 dereferenceable(10) %5)
  %.not11.i = icmp ugt i8 %10, %0
  br i1 %.not11.i, label %_ZN7rocksdbL4LogvENS_12InfoLogLevelEPNS_6LoggerEPKcP13__va_list_tag.exit, label %11

11:                                               ; preds = %6
  %12 = icmp eq i8 %0, 5
  %13 = load ptr, ptr %5, align 8, !tbaa !18
  br i1 %12, label %14, label %17

14:                                               ; preds = %11
  %15 = getelementptr inbounds nuw i8, ptr %13, i64 24
  %16 = load ptr, ptr %15, align 8
  call void %16(ptr noundef nonnull align 8 dereferenceable(10) %5, ptr noundef %2, ptr noundef nonnull %4)
  br label %_ZN7rocksdbL4LogvENS_12InfoLogLevelEPNS_6LoggerEPKcP13__va_list_tag.exit

17:                                               ; preds = %11
  %18 = getelementptr inbounds nuw i8, ptr %13, i64 40
  %19 = load ptr, ptr %18, align 8
  call void %19(ptr noundef nonnull align 8 dereferenceable(10) %5, i8 noundef zeroext %0, ptr noundef %2, ptr noundef nonnull %4)
  br label %_ZN7rocksdbL4LogvENS_12InfoLogLevelEPNS_6LoggerEPKcP13__va_list_tag.exit

_ZN7rocksdbL4LogvENS_12InfoLogLevelEPNS_6LoggerEPKcP13__va_list_tag.exit: ; preds = %3, %6, %14, %17
  call void @llvm.va_end.p0(ptr nonnull %4)
  call void @llvm.lifetime.end.p0(i64 24, ptr nonnull %4) #37
  ret void
}